target datalayout = "e-m:e-p270:32:32-p271:32:32-p272:64:64-i64:64-i128:128-f80:128-n8:16:32:64-S128"
target triple = "x86_64-pc-linux-gnu"

%class.svector = type { %class.vector.0 }
%class.vector.0 = type { ptr }
%"class.datalog::table_signature" = type <{ %"class.datalog::tr_infrastructure<datalog::table_traits>::signature_base", i32, [4 x i8] }>
%"class.datalog::tr_infrastructure<datalog::table_traits>::signature_base" = type { %class.svector }

; Function Attrs: mustprogress nounwind uwtable
define linkonce_odr hidden void @_ZN7datalog15table_signature22set_functional_columnsEj(ptr noundef nonnull align 8 dereferenceable(12) %0, i32 noundef %1) #6 comdat align 2 {
  %3 = alloca ptr, align 8
  %4 = alloca i32, align 4
  store ptr %0, ptr %3, align 8, !tbaa !365
  store i32 %1, ptr %4, align 4, !tbaa !29
  %5 = load ptr, ptr %3, align 8
  %6 = load i32, ptr %4, align 4, !tbaa !29
  %7 = getelementptr inbounds nuw %"class.datalog::table_signature", ptr %5, i32 0, i32 1
  store i32 %6, ptr %7, align 8, !tbaa !375
  ret void
}

; Function Attrs: mustprogress uwtable
define linkonce_odr hidden noundef nonnull align 8 dereferenceable(8) ptr @_ZN6vectorImLb0EjE9push_backERKm(ptr noundef nonnull align 8 dereferenceable(8) %0, ptr noundef nonnull align 8 dereferenceable(8) %1) #4 comdat align 2 {
  %3 = alloca ptr, align 8
  %4 = alloca ptr, align 8
  store ptr %0, ptr %3, align 8, !tbaa !372
  store ptr %1, ptr %4, align 8, !tbaa !378
  %5 = load ptr, ptr %3, align 8
  %6 = getelementptr inbounds nuw %class.vector.0, ptr %5, i32 0, i32 0
  %7 = load ptr, ptr %6, align 8, !tbaa !374
  %8 = icmp eq ptr %7, null
  br i1 %8, label %19, label %9

9:                                                ; preds = %2
  %10 = getelementptr inbounds nuw %class.vector.0, ptr %5, i32 0, i32 0
  %11 = load ptr, ptr %10, align 8, !tbaa !374
  %12 = getelementptr inbounds i32, ptr %11, i64 -1
  %13 = load i32, ptr %12, align 4, !tbaa !29
  %14 = getelementptr inbounds nuw %class.vector.0, ptr %5, i32 0, i32 0
  %15 = load ptr, ptr %14, align 8, !tbaa !374
  %16 = getelementptr inbounds i32, ptr %15, i64 -2
  %17 = load i32, ptr %16, align 4, !tbaa !29
  %18 = icmp eq i32 %13, %17
  br i1 %18, label %19, label %20

19:                                               ; preds = %9, %2
  call void @_ZN6vectorImLb0EjE13expand_vectorEv(ptr noundef nonnull align 8 dereferenceable(8) %5)
  br label %20

20:                                               ; preds = %19, %9
  %21 = getelementptr inbounds nuw %class.vector.0, ptr %5, i32 0, i32 0
  %22 = load ptr, ptr %21, align 8, !tbaa !374
  %23 = getelementptr inbounds nuw %class.vector.0, ptr %5, i32 0, i32 0
  %24 = load ptr, ptr %23, align 8, !tbaa !374
  %25 = getelementptr inbounds i32, ptr %24, i64 -1
  %26 = load i32, ptr %25, align 4, !tbaa !29
  %27 = zext i32 %26 to i64
  %28 = getelementptr inbounds nuw i64, ptr %22, i64 %27
  %29 = load ptr, ptr %4, align 8, !tbaa !378
  %30 = load i64, ptr %29, align 8, !tbaa !379
  store i64 %30, ptr %28, align 8, !tbaa !379
  %31 = getelementptr inbounds nuw %class.vector.0, ptr %5, i32 0, i32 0
  %32 = load ptr, ptr %31, align 8, !tbaa !374
  %33 = getelementptr inbounds i32, ptr %32, i64 -1
  %34 = load i32, ptr %33, align 4, !tbaa !29
  %35 = add i32 %34, 1
  store i32 %35, ptr %33, align 4, !tbaa !29
  ret ptr %5
}

; Function Attrs: mustprogress nounwind uwtable
define linkonce_odr hidden noundef nonnull align 8 dereferenceable(8) ptr @_ZNK6vectorImLb0EjEixEj(ptr noundef nonnull align 8 dereferenceable(8) %0, i32 noundef %1) #6 comdat align 2 {
  %3 = alloca ptr, align 8
  %4 = alloca i32, align 4
  store ptr %0, ptr %3, align 8, !tbaa !372
  store i32 %1, ptr %4, align 4, !tbaa !29
  %5 = load ptr, ptr %3, align 8
  %6 = getelementptr inbounds nuw %class.vector.0, ptr %5, i32 0, i32 0
  %7 = load ptr, ptr %6, align 8, !tbaa !374
  %8 = load i32, ptr %4, align 4, !tbaa !29
  %9 = zext i32 %8 to i64
  %10 = getelementptr inbounds nuw i64, ptr %7, i64 %9
  ret ptr %10
}

; Function Attrs: mustprogress nounwind uwtable
define linkonce_odr hidden noundef i32 @_ZNK7datalog15table_signature18functional_columnsEv(ptr noundef nonnull align 8 dereferenceable(12) %0) #6 comdat align 2 {
  %2 = alloca ptr, align 8
  store ptr %0, ptr %2, align 8, !tbaa !365
  %3 = load ptr, ptr %2, align 8
  %4 = getelementptr inbounds nuw %"class.datalog::table_signature", ptr %3, i32 0, i32 1
  %5 = load i32, ptr %4, align 8, !tbaa !375
  ret i32 %5
}

; Function Attrs: mustprogress nounwind uwtable
define linkonce_odr hidden noundef i32 @_ZNK6vectorImLb0EjE4sizeEv(ptr noundef nonnull align 8 dereferenceable(8) %0) #6 comdat align 2 {
  %2 = alloca i32, align 4
  %3 = alloca ptr, align 8
  store ptr %0, ptr %3, align 8, !tbaa !372
  %4 = load ptr, ptr %3, align 8
  %5 = getelementptr inbounds nuw %class.vector.0, ptr %4, i32 0, i32 0
  %6 = load ptr, ptr %5, align 8, !tbaa !374
  %7 = icmp eq ptr %6, null
  br i1 %7, label %8, label %9

8:                                                ; preds = %1
  store i32 0, ptr %2, align 4
  br label %14

9:                                                ; preds = %1
  %10 = getelementptr inbounds nuw %class.vector.0, ptr %4, i32 0, i32 0
  %11 = load ptr, ptr %10, align 8, !tbaa !374
  %12 = getelementptr inbounds i32, ptr %11, i64 -1
  %13 = load i32, ptr %12, align 4, !tbaa !29
  store i32 %13, ptr %2, align 4
  br label %14

14:                                               ; preds = %9, %8
  %15 = load i32, ptr %2, align 4
  ret i32 %15
}

; Function Attrs: mustprogress nounwind uwtable
define linkonce_odr hidden void @_ZN6vectorImLb0EjE5resetEv(ptr noundef nonnull align 8 dereferenceable(8) %0) #6 comdat align 2 {
  %2 = alloca ptr, align 8
  store ptr %0, ptr %2, align 8, !tbaa !372
  %3 = load ptr, ptr %2, align 8
  %4 = getelementptr inbounds nuw %class.vector.0, ptr %3, i32 0, i32 0
  %5 = load ptr, ptr %4, align 8, !tbaa !374
  %6 = icmp ne ptr %5, null
  br i1 %6, label %7, label %11

7:                                                ; preds = %1
  %8 = getelementptr inbounds nuw %class.vector.0, ptr %3, i32 0, i32 0
  %9 = load ptr, ptr %8, align 8, !tbaa !374
  %10 = getelementptr inbounds i32, ptr %9, i64 -1
  store i32 0, ptr %10, align 4, !tbaa !29
  br label %11

11:                                               ; preds = %7, %1
  ret void
}

; Function Attrs: mustprogress uwtable
define hidden void @_ZN7datalog15table_signature9from_joinERKS0_S2_jPKjS4_RS0_(ptr noundef nonnull align 8 dereferenceable(12) %0, ptr noundef nonnull align 8 dereferenceable(12) %1, i32 noundef %2, ptr noundef %3, ptr noundef %4, ptr noundef nonnull align 8 dereferenceable(12) %5) #4 align 2 {
  %7 = alloca ptr, align 8
  %8 = alloca ptr, align 8
  %9 = alloca i32, align 4
  %10 = alloca ptr, align 8
  %11 = alloca ptr, align 8
  %12 = alloca ptr, align 8
  %13 = alloca i32, align 4
  %14 = alloca i32, align 4
  %15 = alloca i32, align 4
  %16 = alloca i32, align 4
  %17 = alloca i32, align 4
  %18 = alloca i32, align 4
  %19 = alloca i32, align 4
  %20 = alloca i32, align 4
  store ptr %0, ptr %7, align 8, !tbaa !365
  store ptr %1, ptr %8, align 8, !tbaa !365
  store i32 %2, ptr %9, align 4, !tbaa !29
  store ptr %3, ptr %10, align 8, !tbaa !367
  store ptr %4, ptr %11, align 8, !tbaa !367
  store ptr %5, ptr %12, align 8, !tbaa !365
  %21 = load ptr, ptr %12, align 8, !tbaa !365
  call void @_ZN6vectorImLb0EjE5resetEv(ptr noundef nonnull align 8 dereferenceable(8) %21)
  call void @llvm.lifetime.start.p0(i64 4, ptr %13) #3
  %22 = load ptr, ptr %7, align 8, !tbaa !365
  %23 = call noundef i32 @_ZNK6vectorImLb0EjE4sizeEv(ptr noundef nonnull align 8 dereferenceable(8) %22)
  store i32 %23, ptr %13, align 4, !tbaa !29
  call void @llvm.lifetime.start.p0(i64 4, ptr %14) #3
  %24 = load ptr, ptr %8, align 8, !tbaa !365
  %25 = call noundef i32 @_ZNK6vectorImLb0EjE4sizeEv(ptr noundef nonnull align 8 dereferenceable(8) %24)
  store i32 %25, ptr %14, align 4, !tbaa !29
  call void @llvm.lifetime.start.p0(i64 4, ptr %15) #3
  %26 = load i32, ptr %13, align 4, !tbaa !29
  %27 = load ptr, ptr %7, align 8, !tbaa !365
  %28 = call noundef i32 @_ZNK7datalog15table_signature18functional_columnsEv(ptr noundef nonnull align 8 dereferenceable(12) %27)
  %29 = sub i32 %26, %28
  store i32 %29, ptr %15, align 4, !tbaa !29
  call void @llvm.lifetime.start.p0(i64 4, ptr %16) #3
  %30 = load i32, ptr %14, align 4, !tbaa !29
  %31 = load ptr, ptr %8, align 8, !tbaa !365
  %32 = call noundef i32 @_ZNK7datalog15table_signature18functional_columnsEv(ptr noundef nonnull align 8 dereferenceable(12) %31)
  %33 = sub i32 %30, %32
  store i32 %33, ptr %16, align 4, !tbaa !29
  call void @llvm.lifetime.start.p0(i64 4, ptr %17) #3
  store i32 0, ptr %17, align 4, !tbaa !29
  br label %34

34:                                               ; preds = %45, %6
  %35 = load i32, ptr %17, align 4, !tbaa !29
  %36 = load i32, ptr %15, align 4, !tbaa !29
  %37 = icmp ult i32 %35, %36
  br i1 %37, label %39, label %38

38:                                               ; preds = %34
  call void @llvm.lifetime.end.p0(i64 4, ptr %17) #3
  br label %48

39:                                               ; preds = %34
  %40 = load ptr, ptr %12, align 8, !tbaa !365
  %41 = load ptr, ptr %7, align 8, !tbaa !365
  %42 = load i32, ptr %17, align 4, !tbaa !29
  %43 = call noundef nonnull align 8 dereferenceable(8) ptr @_ZNK6vectorImLb0EjEixEj(ptr noundef nonnull align 8 dereferenceable(8) %41, i32 noundef %42)
  %44 = call noundef nonnull align 8 dereferenceable(8) ptr @_ZN6vectorImLb0EjE9push_backERKm(ptr noundef nonnull align 8 dereferenceable(8) %40, ptr noundef nonnull align 8 dereferenceable(8) %43)
  br label %45

45:                                               ; preds = %39
  %46 = load i32, ptr %17, align 4, !tbaa !29
  %47 = add i32 %46, 1
  store i32 %47, ptr %17, align 4, !tbaa !29
  br label %34, !llvm.loop !368

48:                                               ; preds = %38
  call void @llvm.lifetime.start.p0(i64 4, ptr %18) #3
  store i32 0, ptr %18, align 4, !tbaa !29
  br label %49

49:                                               ; preds = %60, %48
  %50 = load i32, ptr %18, align 4, !tbaa !29
  %51 = load i32, ptr %16, align 4, !tbaa !29
  %52 = icmp ult i32 %50, %51
  br i1 %52, label %54, label %53

53:                                               ; preds = %49
  call void @llvm.lifetime.end.p0(i64 4, ptr %18) #3
  br label %63

54:                                               ; preds = %49
  %55 = load ptr, ptr %12, align 8, !tbaa !365
  %56 = load ptr, ptr %8, align 8, !tbaa !365
  %57 = load i32, ptr %18, align 4, !tbaa !29
  %58 = call noundef nonnull align 8 dereferenceable(8) ptr @_ZNK6vectorImLb0EjEixEj(ptr noundef nonnull align 8 dereferenceable(8) %56, i32 noundef %57)
  %59 = call noundef nonnull align 8 dereferenceable(8) ptr @_ZN6vectorImLb0EjE9push_backERKm(ptr noundef nonnull align 8 dereferenceable(8) %55, ptr noundef nonnull align 8 dereferenceable(8) %58)
  br label %60

60:                                               ; preds = %54
  %61 = load i32, ptr %18, align 4, !tbaa !29
  %62 = add i32 %61, 1
  store i32 %62, ptr %18, align 4, !tbaa !29
  br label %49, !llvm.loop !369

63:                                               ; preds = %53
  call void @llvm.lifetime.start.p0(i64 4, ptr %19) #3
  %64 = load i32, ptr %15, align 4, !tbaa !29
  store i32 %64, ptr %19, align 4, !tbaa !29
  br label %65

65:                                               ; preds = %76, %63
  %66 = load i32, ptr %19, align 4, !tbaa !29
  %67 = load i32, ptr %13, align 4, !tbaa !29
  %68 = icmp ult i32 %66, %67
  br i1 %68, label %70, label %69

69:                                               ; preds = %65
  call void @llvm.lifetime.end.p0(i64 4, ptr %19) #3
  br label %79

70:                                               ; preds = %65
  %71 = load ptr, ptr %12, align 8, !tbaa !365
  %72 = load ptr, ptr %7, align 8, !tbaa !365
  %73 = load i32, ptr %19, align 4, !tbaa !29
  %74 = call noundef nonnull align 8 dereferenceable(8) ptr @_ZNK6vectorImLb0EjEixEj(ptr noundef nonnull align 8 dereferenceable(8) %72, i32 noundef %73)
  %75 = call noundef nonnull align 8 dereferenceable(8) ptr @_ZN6vectorImLb0EjE9push_backERKm(ptr noundef nonnull align 8 dereferenceable(8) %71, ptr noundef nonnull align 8 dereferenceable(8) %74)
  br label %76

76:                                               ; preds = %70
  %77 = load i32, ptr %19, align 4, !tbaa !29
  %78 = add i32 %77, 1
  store i32 %78, ptr %19, align 4, !tbaa !29
  br label %65, !llvm.loop !370

79:                                               ; preds = %69
  call void @llvm.lifetime.start.p0(i64 4, ptr %20) #3
  %80 = load i32, ptr %16, align 4, !tbaa !29
  store i32 %80, ptr %20, align 4, !tbaa !29
  br label %81

81:                                               ; preds = %92, %79
  %82 = load i32, ptr %20, align 4, !tbaa !29
  %83 = load i32, ptr %14, align 4, !tbaa !29
  %84 = icmp ult i32 %82, %83
  br i1 %84, label %86, label %85

85:                                               ; preds = %81
  call void @llvm.lifetime.end.p0(i64 4, ptr %20) #3
  br label %95

86:                                               ; preds = %81
  %87 = load ptr, ptr %12, align 8, !tbaa !365
  %88 = load ptr, ptr %8, align 8, !tbaa !365
  %89 = load i32, ptr %20, align 4, !tbaa !29
  %90 = call noundef nonnull align 8 dereferenceable(8) ptr @_ZNK6vectorImLb0EjEixEj(ptr noundef nonnull align 8 dereferenceable(8) %88, i32 noundef %89)
  %91 = call noundef nonnull align 8 dereferenceable(8) ptr @_ZN6vectorImLb0EjE9push_backERKm(ptr noundef nonnull align 8 dereferenceable(8) %87, ptr noundef nonnull align 8 dereferenceable(8) %90)
  br label %92

92:                                               ; preds = %86
  %93 = load i32, ptr %20, align 4, !tbaa !29
  %94 = add i32 %93, 1
  store i32 %94, ptr %20, align 4, !tbaa !29
  br label %81, !llvm.loop !371

95:                                               ; preds = %85
  %96 = load ptr, ptr %12, align 8, !tbaa !365
  %97 = load ptr, ptr %7, align 8, !tbaa !365
  %98 = call noundef i32 @_ZNK7datalog15table_signature18functional_columnsEv(ptr noundef nonnull align 8 dereferenceable(12) %97)
  %99 = load ptr, ptr %8, align 8, !tbaa !365
  %100 = call noundef i32 @_ZNK7datalog15table_signature18functional_columnsEv(ptr noundef nonnull align 8 dereferenceable(12) %99)
  %101 = add i32 %98, %100
  call void @_ZN7datalog15table_signature22set_functional_columnsEj(ptr noundef nonnull align 8 dereferenceable(12) %96, i32 noundef %101)
  call void @llvm.lifetime.end.p0(i64 4, ptr %16) #3
  call void @llvm.lifetime.end.p0(i64 4, ptr %15) #3
  call void @llvm.lifetime.end.p0(i64 4, ptr %14) #3
  call void @llvm.lifetime.end.p0(i64 4, ptr %13) #3
  ret void
}