; Function Attrs: mustprogress uwtable
define hidden void @_ZN7datalog15table_signature9from_joinERKS0_S2_jPKjS4_RS0_(ptr noundef nonnull readonly align 8 captures(none) dereferenceable(12) %0, ptr noundef nonnull readonly align 8 captures(none) dereferenceable(12) %1, i32 %2, ptr readnone captures(none) %3, ptr readnone captures(none) %4, ptr noundef nonnull align 8 dereferenceable(12) %5) local_unnamed_addr #3 align 2 {
  %7 = load ptr, ptr %5, align 8, !tbaa !328
  %.not.i = icmp eq ptr %7, null
  br i1 %.not.i, label %_ZN6vectorImLb0EjE5resetEv.exit, label %8

8:                                                ; preds = %6
  %9 = getelementptr inbounds i8, ptr %7, i64 -4
  store i32 0, ptr %9, align 4, !tbaa !12
  br label %_ZN6vectorImLb0EjE5resetEv.exit

_ZN6vectorImLb0EjE5resetEv.exit:                  ; preds = %6, %8
  %10 = load ptr, ptr %0, align 8, !tbaa !328
  %11 = icmp eq ptr %10, null
  br i1 %11, label %_ZNK6vectorImLb0EjE4sizeEv.exit, label %12

12:                                               ; preds = %_ZN6vectorImLb0EjE5resetEv.exit
  %13 = getelementptr inbounds i8, ptr %10, i64 -4
  %14 = load i32, ptr %13, align 4, !tbaa !12
  br label %_ZNK6vectorImLb0EjE4sizeEv.exit

_ZNK6vectorImLb0EjE4sizeEv.exit:                  ; preds = %_ZN6vectorImLb0EjE5resetEv.exit, %12
  %.0.i = phi i32 [ %14, %12 ], [ 0, %_ZN6vectorImLb0EjE5resetEv.exit ]
  %15 = load ptr, ptr %1, align 8, !tbaa !328
  %16 = icmp eq ptr %15, null
  br i1 %16, label %_ZNK6vectorImLb0EjE4sizeEv.exit41, label %17

17:                                               ; preds = %_ZNK6vectorImLb0EjE4sizeEv.exit
  %18 = getelementptr inbounds i8, ptr %15, i64 -4
  %19 = load i32, ptr %18, align 4, !tbaa !12
  br label %_ZNK6vectorImLb0EjE4sizeEv.exit41

_ZNK6vectorImLb0EjE4sizeEv.exit41:                ; preds = %_ZNK6vectorImLb0EjE4sizeEv.exit, %17
  %.0.i40 = phi i32 [ %19, %17 ], [ 0, %_ZNK6vectorImLb0EjE4sizeEv.exit ]
  %20 = getelementptr inbounds nuw i8, ptr %0, i64 8
  %21 = load i32, ptr %20, align 8, !tbaa !329
  %22 = sub i32 %.0.i, %21
  %23 = getelementptr inbounds nuw i8, ptr %1, i64 8
  %24 = load i32, ptr %23, align 8, !tbaa !329
  %25 = sub i32 %.0.i40, %24
  %.not = icmp eq i32 %.0.i, %21
  br i1 %.not, label %.preheader55, label %.lr.ph.preheader

.lr.ph.preheader:                                 ; preds = %_ZNK6vectorImLb0EjE4sizeEv.exit41
  %wide.trip.count = zext i32 %22 to i64
  br label %.lr.ph

.preheader55:                                     ; preds = %_ZN6vectorImLb0EjE9push_backERKm.exit, %_ZNK6vectorImLb0EjE4sizeEv.exit41
  %26 = phi ptr [ %7, %_ZNK6vectorImLb0EjE4sizeEv.exit41 ], [ %38, %_ZN6vectorImLb0EjE9push_backERKm.exit ]
  %.not63 = icmp eq i32 %.0.i40, %24
  br i1 %.not63, label %.preheader54, label %.lr.ph58.preheader

.lr.ph58.preheader:                               ; preds = %.preheader55
  %wide.trip.count68 = zext i32 %25 to i64
  br label %.lr.ph58

.lr.ph:                                           ; preds = %.lr.ph.preheader, %_ZN6vectorImLb0EjE9push_backERKm.exit
  %27 = phi ptr [ %7, %.lr.ph.preheader ], [ %38, %_ZN6vectorImLb0EjE9push_backERKm.exit ]
  %indvars.iv = phi i64 [ 0, %.lr.ph.preheader ], [ %indvars.iv.next, %_ZN6vectorImLb0EjE9push_backERKm.exit ]
  %28 = load ptr, ptr %0, align 8, !tbaa !328
  %29 = getelementptr inbounds nuw i64, ptr %28, i64 %indvars.iv
  %30 = icmp eq ptr %27, null
  br i1 %30, label %37, label %31

31:                                               ; preds = %.lr.ph
  %32 = getelementptr inbounds i8, ptr %27, i64 -4
  %33 = load i32, ptr %32, align 4, !tbaa !12
  %34 = getelementptr inbounds i8, ptr %27, i64 -8
  %35 = load i32, ptr %34, align 4, !tbaa !12
  %36 = icmp eq i32 %33, %35
  br i1 %36, label %37, label %_ZN6vectorImLb0EjE9push_backERKm.exit

37:                                               ; preds = %31, %.lr.ph
  tail call void @_ZN6vectorImLb0EjE13expand_vectorEv(ptr noundef nonnull align 8 dereferenceable(8) %5)
  %.pre.i = load ptr, ptr %5, align 8, !tbaa !328
  %.phi.trans.insert.i = getelementptr inbounds i8, ptr %.pre.i, i64 -4
  %.pre2.i = load i32, ptr %.phi.trans.insert.i, align 4, !tbaa !12
  br label %_ZN6vectorImLb0EjE9push_backERKm.exit

_ZN6vectorImLb0EjE9push_backERKm.exit:            ; preds = %31, %37
  %38 = phi ptr [ %.pre.i, %37 ], [ %27, %31 ]
  %39 = phi i32 [ %.pre2.i, %37 ], [ %33, %31 ]
  %40 = getelementptr inbounds i8, ptr %38, i64 -4
  %41 = zext i32 %39 to i64
  %42 = getelementptr inbounds nuw i64, ptr %38, i64 %41
  %43 = load i64, ptr %29, align 8, !tbaa !332
  store i64 %43, ptr %42, align 8, !tbaa !332
  %44 = add i32 %39, 1
  store i32 %44, ptr %40, align 4, !tbaa !12
  %indvars.iv.next = add nuw nsw i64 %indvars.iv, 1
  %exitcond.not = icmp eq i64 %indvars.iv.next, %wide.trip.count
  br i1 %exitcond.not, label %.preheader55, label %.lr.ph, !llvm.loop !333

.preheader54:                                     ; preds = %_ZN6vectorImLb0EjE9push_backERKm.exit45, %.preheader55
  %45 = phi ptr [ %26, %.preheader55 ], [ %59, %_ZN6vectorImLb0EjE9push_backERKm.exit45 ]
  %46 = icmp ult i32 %22, %.0.i
  br i1 %46, label %.lr.ph60.preheader, label %.preheader

.lr.ph60.preheader:                               ; preds = %.preheader54
  %47 = zext i32 %22 to i64
  br label %.lr.ph60

.lr.ph58:                                         ; preds = %.lr.ph58.preheader, %_ZN6vectorImLb0EjE9push_backERKm.exit45
  %48 = phi ptr [ %26, %.lr.ph58.preheader ], [ %59, %_ZN6vectorImLb0EjE9push_backERKm.exit45 ]
  %indvars.iv65 = phi i64 [ 0, %.lr.ph58.preheader ], [ %indvars.iv.next66, %_ZN6vectorImLb0EjE9push_backERKm.exit45 ]
  %49 = load ptr, ptr %1, align 8, !tbaa !328
  %50 = getelementptr inbounds nuw i64, ptr %49, i64 %indvars.iv65
  %51 = icmp eq ptr %48, null
  br i1 %51, label %58, label %52

52:                                               ; preds = %.lr.ph58
  %53 = getelementptr inbounds i8, ptr %48, i64 -4
  %54 = load i32, ptr %53, align 4, !tbaa !12
  %55 = getelementptr inbounds i8, ptr %48, i64 -8
  %56 = load i32, ptr %55, align 4, !tbaa !12
  %57 = icmp eq i32 %54, %56
  br i1 %57, label %58, label %_ZN6vectorImLb0EjE9push_backERKm.exit45

58:                                               ; preds = %52, %.lr.ph58
  tail call void @_ZN6vectorImLb0EjE13expand_vectorEv(ptr noundef nonnull align 8 dereferenceable(8) %5)
  %.pre.i42 = load ptr, ptr %5, align 8, !tbaa !328
  %.phi.trans.insert.i43 = getelementptr inbounds i8, ptr %.pre.i42, i64 -4
  %.pre2.i44 = load i32, ptr %.phi.trans.insert.i43, align 4, !tbaa !12
  br label %_ZN6vectorImLb0EjE9push_backERKm.exit45

_ZN6vectorImLb0EjE9push_backERKm.exit45:          ; preds = %52, %58
  %59 = phi ptr [ %.pre.i42, %58 ], [ %48, %52 ]
  %60 = phi i32 [ %.pre2.i44, %58 ], [ %54, %52 ]
  %61 = getelementptr inbounds i8, ptr %59, i64 -4
  %62 = zext i32 %60 to i64
  %63 = getelementptr inbounds nuw i64, ptr %59, i64 %62
  %64 = load i64, ptr %50, align 8, !tbaa !332
  store i64 %64, ptr %63, align 8, !tbaa !332
  %65 = add i32 %60, 1
  store i32 %65, ptr %61, align 4, !tbaa !12
  %indvars.iv.next66 = add nuw nsw i64 %indvars.iv65, 1
  %exitcond69.not = icmp eq i64 %indvars.iv.next66, %wide.trip.count68
  br i1 %exitcond69.not, label %.preheader54, label %.lr.ph58, !llvm.loop !334

.preheader:                                       ; preds = %_ZN6vectorImLb0EjE9push_backERKm.exit49, %.preheader54
  %66 = phi ptr [ %45, %.preheader54 ], [ %80, %_ZN6vectorImLb0EjE9push_backERKm.exit49 ]
  %67 = icmp ult i32 %25, %.0.i40
  br i1 %67, label %.lr.ph62.preheader, label %._crit_edge

.lr.ph62.preheader:                               ; preds = %.preheader
  %68 = zext i32 %25 to i64
  br label %.lr.ph62

.lr.ph60:                                         ; preds = %.lr.ph60.preheader, %_ZN6vectorImLb0EjE9push_backERKm.exit49
  %69 = phi ptr [ %45, %.lr.ph60.preheader ], [ %80, %_ZN6vectorImLb0EjE9push_backERKm.exit49 ]
  %indvars.iv70 = phi i64 [ %47, %.lr.ph60.preheader ], [ %indvars.iv.next71, %_ZN6vectorImLb0EjE9push_backERKm.exit49 ]
  %70 = load ptr, ptr %0, align 8, !tbaa !328
  %71 = getelementptr inbounds nuw i64, ptr %70, i64 %indvars.iv70
  %72 = icmp eq ptr %69, null
  br i1 %72, label %79, label %73

73:                                               ; preds = %.lr.ph60
  %74 = getelementptr inbounds i8, ptr %69, i64 -4
  %75 = load i32, ptr %74, align 4, !tbaa !12
  %76 = getelementptr inbounds i8, ptr %69, i64 -8
  %77 = load i32, ptr %76, align 4, !tbaa !12
  %78 = icmp eq i32 %75, %77
  br i1 %78, label %79, label %_ZN6vectorImLb0EjE9push_backERKm.exit49

79:                                               ; preds = %73, %.lr.ph60
  tail call void @_ZN6vectorImLb0EjE13expand_vectorEv(ptr noundef nonnull align 8 dereferenceable(8) %5)
  %.pre.i46 = load ptr, ptr %5, align 8, !tbaa !328
  %.phi.trans.insert.i47 = getelementptr inbounds i8, ptr %.pre.i46, i64 -4
  %.pre2.i48 = load i32, ptr %.phi.trans.insert.i47, align 4, !tbaa !12
  br label %_ZN6vectorImLb0EjE9push_backERKm.exit49

_ZN6vectorImLb0EjE9push_backERKm.exit49:          ; preds = %73, %79
  %80 = phi ptr [ %.pre.i46, %79 ], [ %69, %73 ]
  %81 = phi i32 [ %.pre2.i48, %79 ], [ %75, %73 ]
  %82 = getelementptr inbounds i8, ptr %80, i64 -4
  %83 = zext i32 %81 to i64
  %84 = getelementptr inbounds nuw i64, ptr %80, i64 %83
  %85 = load i64, ptr %71, align 8, !tbaa !332
  store i64 %85, ptr %84, align 8, !tbaa !332
  %86 = add i32 %81, 1
  store i32 %86, ptr %82, align 4, !tbaa !12
  %indvars.iv.next71 = add nuw nsw i64 %indvars.iv70, 1
  %lftr.wideiv = trunc i64 %indvars.iv.next71 to i32
  %exitcond73.not = icmp eq i32 %.0.i, %lftr.wideiv
  br i1 %exitcond73.not, label %.preheader, label %.lr.ph60, !llvm.loop !335

._crit_edge:                                      ; preds = %_ZN6vectorImLb0EjE9push_backERKm.exit53, %.preheader
  %87 = load i32, ptr %20, align 8, !tbaa !329
  %88 = load i32, ptr %23, align 8, !tbaa !329
  %89 = add i32 %88, %87
  %90 = getelementptr inbounds nuw i8, ptr %5, i64 8
  store i32 %89, ptr %90, align 8, !tbaa !329
  ret void

.lr.ph62:                                         ; preds = %.lr.ph62.preheader, %_ZN6vectorImLb0EjE9push_backERKm.exit53
  %91 = phi ptr [ %66, %.lr.ph62.preheader ], [ %102, %_ZN6vectorImLb0EjE9push_backERKm.exit53 ]
  %indvars.iv74 = phi i64 [ %68, %.lr.ph62.preheader ], [ %indvars.iv.next75, %_ZN6vectorImLb0EjE9push_backERKm.exit53 ]
  %92 = load ptr, ptr %1, align 8, !tbaa !328
  %93 = getelementptr inbounds nuw i64, ptr %92, i64 %indvars.iv74
  %94 = icmp eq ptr %91, null
  br i1 %94, label %101, label %95

95:                                               ; preds = %.lr.ph62
  %96 = getelementptr inbounds i8, ptr %91, i64 -4
  %97 = load i32, ptr %96, align 4, !tbaa !12
  %98 = getelementptr inbounds i8, ptr %91, i64 -8
  %99 = load i32, ptr %98, align 4, !tbaa !12
  %100 = icmp eq i32 %97, %99
  br i1 %100, label %101, label %_ZN6vectorImLb0EjE9push_backERKm.exit53

101:                                              ; preds = %95, %.lr.ph62
  tail call void @_ZN6vectorImLb0EjE13expand_vectorEv(ptr noundef nonnull align 8 dereferenceable(8) %5)
  %.pre.i50 = load ptr, ptr %5, align 8, !tbaa !328
  %.phi.trans.insert.i51 = getelementptr inbounds i8, ptr %.pre.i50, i64 -4
  %.pre2.i52 = load i32, ptr %.phi.trans.insert.i51, align 4, !tbaa !12
  br label %_ZN6vectorImLb0EjE9push_backERKm.exit53

_ZN6vectorImLb0EjE9push_backERKm.exit53:          ; preds = %95, %101
  %102 = phi ptr [ %.pre.i50, %101 ], [ %91, %95 ]
  %103 = phi i32 [ %.pre2.i52, %101 ], [ %97, %95 ]
  %104 = getelementptr inbounds i8, ptr %102, i64 -4
  %105 = zext i32 %103 to i64
  %106 = getelementptr inbounds nuw i64, ptr %102, i64 %105
  %107 = load i64, ptr %93, align 8, !tbaa !332
  store i64 %107, ptr %106, align 8, !tbaa !332
  %108 = add i32 %103, 1
  store i32 %108, ptr %104, align 4, !tbaa !12
  %indvars.iv.next75 = add nuw nsw i64 %indvars.iv74, 1
  %lftr.wideiv77 = trunc i64 %indvars.iv.next75 to i32
  %exitcond78.not = icmp eq i32 %.0.i40, %lftr.wideiv77
  br i1 %exitcond78.not, label %._crit_edge, label %.lr.ph62, !llvm.loop !336
}